; Function Attrs: mustprogress uwtable
define dso_local noundef ptr @_ZN4base15LinearHistogram14FactoryTimeGetERKNSt7__cxx1112basic_stringIcSt11char_traitsIcESaIcEEENS_9TimeDeltaES9_ji(ptr noundef nonnull align 8 dereferenceable(32) %name, i64 %minimum.coerce, i64 %maximum.coerce, i32 noundef %bucket_count, i32 noundef %flags) local_unnamed_addr #0 align 2 {
entry:
  %ref.tmp.i.i = alloca %"class.base::LinearHistogram::Factory", align 8
  %minimum = alloca %"class.base::TimeDelta", align 8
  %maximum = alloca %"class.base::TimeDelta", align 8
  store i64 %minimum.coerce, ptr %minimum, align 8
  store i64 %maximum.coerce, ptr %maximum, align 8
  %call = call noundef i64 @_ZNK4base9TimeDelta14InMillisecondsEv(ptr noundef nonnull align 8 dereferenceable(8) %minimum)
  %conv = trunc i64 %call to i32
  %call2 = call noundef i64 @_ZNK4base9TimeDelta14InMillisecondsEv(ptr noundef nonnull align 8 dereferenceable(8) %maximum)
  %conv3 = trunc i64 %call2 to i32
  call void @llvm.lifetime.start.p0(i64 48, ptr nonnull %ref.tmp.i.i)
  %spec.select.i.i = call i32 @llvm.smax.i32(i32 %conv, i32 1)
  %0 = load i32, ptr @_ZN4base13HistogramBase15kSampleType_MAXE, align 4
  %cmp1.not.i.i.i = icmp sgt i32 %0, %conv3
  %sub.i.i.i = add nsw i32 %0, -1
  %maximum.addr.0.i.i = select i1 %cmp1.not.i.i.i, i32 %conv3, i32 %sub.i.i.i
  %bucket_count.addr.1.i.i = call i32 @llvm.umin.i32(i32 %bucket_count, i32 16383)
  %name_.i.i.i.i = getelementptr inbounds i8, ptr %ref.tmp.i.i, i64 8
  store ptr %name, ptr %name_.i.i.i.i, align 8
  %histogram_type_.i.i.i.i = getelementptr inbounds i8, ptr %ref.tmp.i.i, i64 16
  store i32 1, ptr %histogram_type_.i.i.i.i, align 8
  %minimum_.i.i.i.i = getelementptr inbounds i8, ptr %ref.tmp.i.i, i64 20
  store i32 %spec.select.i.i, ptr %minimum_.i.i.i.i, align 4
  %maximum_.i.i.i.i = getelementptr inbounds i8, ptr %ref.tmp.i.i, i64 24
  store i32 %maximum.addr.0.i.i, ptr %maximum_.i.i.i.i, align 8
  %bucket_count_.i.i.i.i = getelementptr inbounds i8, ptr %ref.tmp.i.i, i64 28
  store i32 %bucket_count.addr.1.i.i, ptr %bucket_count_.i.i.i.i, align 4
  %flags_.i.i.i.i = getelementptr inbounds i8, ptr %ref.tmp.i.i, i64 32
  store i32 %flags, ptr %flags_.i.i.i.i, align 8
  store ptr getelementptr inbounds ({ [5 x ptr] }, ptr @_ZTVN4base15LinearHistogram7FactoryE, i64 0, i32 0, i64 2), ptr %ref.tmp.i.i, align 8
  %descriptions_.i.i.i = getelementptr inbounds i8, ptr %ref.tmp.i.i, i64 40
  store ptr null, ptr %descriptions_.i.i.i, align 8
  %call1.i.i = call noundef ptr @_ZN4base9Histogram7Factory5BuildEv(ptr noundef nonnull align 8 dereferenceable(36) %ref.tmp.i.i)
  call void @llvm.lifetime.end.p0(i64 48, ptr nonnull %ref.tmp.i.i)
  ret ptr %call1.i.i
}